; Function Attrs: mustprogress nounwind uwtable
define noundef ptr @_ZNK8WasmEdge6Loader13SharedLibrary13getSymbolAddrEPKc(ptr nocapture noundef nonnull readonly align 8 dereferenceable(32) %0, ptr noundef %1) local_unnamed_addr #0 align 2 {
  %3 = getelementptr inbounds i8, ptr %0, i64 24
  %4 = load ptr, ptr %3, align 8
  %.not = icmp eq ptr %4, null
  br i1 %.not, label %7, label %5

5:                                                ; preds = %2
  %6 = tail call ptr @dlsym(ptr noundef nonnull %4, ptr noundef %1) #16
  br label %7

7:                                                ; preds = %2, %5
  %.0 = phi ptr [ %6, %5 ], [ null, %2 ]
  ret ptr %.0
}